(dp0
S'notification_urls'
p1
(dp2
S'hr'
p3
(lp4
S'http://127.0.0.1:1880/hr'
p5
asS'snapshot'
p6
(lp7
S'http://127.0.0.1:1880/snapshot'
p8
aS'http://127.0.0.1:8081/snapshot'
p9
asS'notifData'
p10
(lp11
S'http://127.0.0.1:1880/notifData'
p12
asS'notifLog'
p13
(lp14
S'http://127.0.0.1:1880/notifLog'
p15
asS'notifIpData'
p16
(lp17
S'http://127.0.0.1:1880/notifIpData'
p18
asS'oap'
p19
(lp20
S'http://127.0.0.1:1880/oap'
p21
asS'event'
p22
(lp23
S'http://127.0.0.1:1880/event'
p24
aS'http://127.0.0.1:8081/event'
p25
asS'notifHealthReport'
p26
(lp27
S'http://127.0.0.1:1880/notifHealthReport'
p28
assS'managers'
p29
(lp30
S'/dev/ttyUSB3'
p31
as.